target datalayout = "e-m:e-p270:32:32-p271:32:32-p272:64:64-i64:64-i128:128-f80:128-n8:16:32:64-S128"
target triple = "x86_64-pc-linux-gnu"

%"class.std::__cxx11::basic_string" = type { %"struct.std::__cxx11::basic_string<char>::_Alloc_hider", i64, %union.anon }
%"struct.std::__cxx11::basic_string<char>::_Alloc_hider" = type { ptr }
%union.anon = type { i64, [8 x i8] }
%"class.std::shared_ptr" = type { %"class.std::__shared_ptr" }
%"class.std::__shared_ptr" = type { ptr, %"class.std::__shared_count" }
%"class.std::__shared_count" = type { ptr }
%"class.absl::debian2::AlphaNum" = type { %"class.absl::debian2::string_view", [32 x i8] }
%"class.absl::debian2::string_view" = type { ptr, i64 }
%"class.open_spiel::dots_and_boxes::DotsAndBoxesState" = type <{ %"class.open_spiel::State.base", [4 x i8], %"class.std::vector.9", %"class.std::vector.9", %"class.std::vector.9", i32, i32, i32, i32, i32, i32, %"struct.std::array", i8, [7 x i8] }>
%"class.open_spiel::State.base" = type <{ ptr, %"class.std::shared_ptr", i32, i32, %"class.std::vector", i32 }>
%"class.std::vector" = type { %"struct.std::_Vector_base" }
%"struct.std::_Vector_base" = type { %"struct.std::_Vector_base<open_spiel::State::PlayerAction, std::allocator<open_spiel::State::PlayerAction>>::_Vector_impl" }
%"struct.std::_Vector_base<open_spiel::State::PlayerAction, std::allocator<open_spiel::State::PlayerAction>>::_Vector_impl" = type { %"struct.std::_Vector_base<open_spiel::State::PlayerAction, std::allocator<open_spiel::State::PlayerAction>>::_Vector_impl_data" }
%"struct.std::_Vector_base<open_spiel::State::PlayerAction, std::allocator<open_spiel::State::PlayerAction>>::_Vector_impl_data" = type { ptr, ptr, ptr }
%"class.std::vector.9" = type { %"struct.std::_Vector_base.10" }
%"struct.std::_Vector_base.10" = type { %"struct.std::_Vector_base<open_spiel::dots_and_boxes::CellState, std::allocator<open_spiel::dots_and_boxes::CellState>>::_Vector_impl" }
%"struct.std::_Vector_base<open_spiel::dots_and_boxes::CellState, std::allocator<open_spiel::dots_and_boxes::CellState>>::_Vector_impl" = type { %"struct.std::_Vector_base<open_spiel::dots_and_boxes::CellState, std::allocator<open_spiel::dots_and_boxes::CellState>>::_Vector_impl_data" }
%"struct.std::_Vector_base<open_spiel::dots_and_boxes::CellState, std::allocator<open_spiel::dots_and_boxes::CellState>>::_Vector_impl_data" = type { ptr, ptr, ptr }
%"struct.std::array" = type { [2 x i32] }
%class.anon = type { i8 }

@.str.9 = private unnamed_addr constant [2 x i8] c"1\00", align 1
@.str.35 = private unnamed_addr constant [2 x i8] c"0\00", align 1

; Function Attrs: mustprogress nounwind uwtable
define linkonce_odr void @_ZZN4absl7debian211string_view19CheckLengthInternalEmENKUlvE_clEv(ptr noundef nonnull align 1 dereferenceable(1) %0) #5 comdat align 2 {
  %2 = alloca ptr, align 8
  store ptr %0, ptr %2, align 8
  br label %3

3:                                                ; preds = %1
  call void @llvm.trap()
  unreachable

4:                                                ; No predecessors!
  ret void
}

; Function Attrs: mustprogress uwtable
define linkonce_odr noundef i64 @_ZN4absl7debian211string_view19CheckLengthInternalEm(i64 noundef %0) #4 comdat align 2 {
  %2 = alloca i64, align 8
  %3 = alloca %class.anon, align 1
  store i64 %0, ptr %2, align 8
  %4 = load i64, ptr %2, align 8
  %5 = icmp ule i64 %4, 9223372036854775807
  br i1 %5, label %6, label %7

6:                                                ; preds = %1
  br label %8

7:                                                ; preds = %1
  call void @_ZZN4absl7debian211string_view19CheckLengthInternalEmENKUlvE_clEv(ptr noundef nonnull align 1 dereferenceable(1) %3)
  br label %8

8:                                                ; preds = %7, %6
  %9 = load i64, ptr %2, align 8
  ret i64 %9
}

; Function Attrs: mustprogress nounwind uwtable
define linkonce_odr noundef i64 @_ZN4absl7debian211string_view14StrlenInternalEPKc(ptr noundef %0) #5 comdat align 2 {
  %2 = alloca ptr, align 8
  store ptr %0, ptr %2, align 8
  %3 = load ptr, ptr %2, align 8
  %4 = call i64 @strlen(ptr noundef %3) #3
  ret i64 %4
}

; Function Attrs: mustprogress uwtable
define linkonce_odr void @_ZN4absl7debian211string_viewC2EPKc(ptr noundef nonnull align 8 dereferenceable(16) %0, ptr noundef %1) unnamed_addr #4 comdat align 2 {
  %3 = alloca ptr, align 8
  %4 = alloca ptr, align 8
  store ptr %0, ptr %3, align 8
  store ptr %1, ptr %4, align 8
  %5 = load ptr, ptr %3, align 8
  %6 = getelementptr inbounds nuw %"class.absl::debian2::string_view", ptr %5, i32 0, i32 0
  %7 = load ptr, ptr %4, align 8
  store ptr %7, ptr %6, align 8
  %8 = getelementptr inbounds nuw %"class.absl::debian2::string_view", ptr %5, i32 0, i32 1
  %9 = load ptr, ptr %4, align 8
  %10 = icmp ne ptr %9, null
  br i1 %10, label %11, label %15

11:                                               ; preds = %2
  %12 = load ptr, ptr %4, align 8
  %13 = call noundef i64 @_ZN4absl7debian211string_view14StrlenInternalEPKc(ptr noundef %12)
  %14 = call noundef i64 @_ZN4absl7debian211string_view19CheckLengthInternalEm(i64 noundef %13)
  br label %16

15:                                               ; preds = %2
  br label %16

16:                                               ; preds = %15, %11
  %17 = phi i64 [ %14, %11 ], [ 0, %15 ]
  store i64 %17, ptr %8, align 8
  ret void
}

; Function Attrs: mustprogress uwtable
define linkonce_odr void @_ZN4absl7debian28AlphaNumC2EPKc(ptr noundef nonnull align 8 dereferenceable(48) %0, ptr noundef %1) unnamed_addr #4 comdat align 2 {
  %3 = alloca ptr, align 8
  %4 = alloca ptr, align 8
  store ptr %0, ptr %3, align 8
  store ptr %1, ptr %4, align 8
  %5 = load ptr, ptr %3, align 8
  %6 = getelementptr inbounds nuw %"class.absl::debian2::AlphaNum", ptr %5, i32 0, i32 0
  %7 = load ptr, ptr %4, align 8
  call void @_ZN4absl7debian211string_viewC2EPKc(ptr noundef nonnull align 8 dereferenceable(16) %6, ptr noundef %7)
  ret void
}

; Function Attrs: mustprogress nounwind uwtable
define linkonce_odr noundef nonnull align 4 dereferenceable(4) ptr @_ZNKSt6vectorIN10open_spiel14dots_and_boxes9CellStateESaIS2_EEixEm(ptr noundef nonnull align 8 dereferenceable(24) %0, i64 noundef %1) #5 comdat align 2 {
  %3 = alloca ptr, align 8
  %4 = alloca i64, align 8
  store ptr %0, ptr %3, align 8
  store i64 %1, ptr %4, align 8
  %5 = load ptr, ptr %3, align 8
  %6 = getelementptr inbounds nuw %"struct.std::_Vector_base.10", ptr %5, i32 0, i32 0
  %7 = getelementptr inbounds nuw %"struct.std::_Vector_base<open_spiel::dots_and_boxes::CellState, std::allocator<open_spiel::dots_and_boxes::CellState>>::_Vector_impl_data", ptr %6, i32 0, i32 0
  %8 = load ptr, ptr %7, align 8
  %9 = load i64, ptr %4, align 8
  %10 = getelementptr inbounds i32, ptr %8, i64 %9
  ret ptr %10
}

; Function Attrs: mustprogress uwtable
define void @_ZNK10open_spiel14dots_and_boxes17DotsAndBoxesState9DbnStringB5cxx11Ev(ptr dead_on_unwind noalias writable sret(%"class.std::__cxx11::basic_string") align 8 %0, ptr noundef nonnull align 8 dereferenceable(169) %1) #4 align 2 personality ptr @__gxx_personality_v0 {
  %3 = alloca ptr, align 8
  %4 = alloca ptr, align 8
  %5 = alloca i1, align 1
  %6 = alloca i32, align 4
  %7 = alloca i32, align 4
  %8 = alloca i32, align 4
  %9 = alloca i32, align 4
  %10 = alloca %"class.absl::debian2::AlphaNum", align 8
  %11 = alloca ptr, align 8
  %12 = alloca i32, align 4
  %13 = alloca %"class.absl::debian2::AlphaNum", align 8
  %14 = alloca i32, align 4
  %15 = alloca i32, align 4
  %16 = alloca %"class.absl::debian2::AlphaNum", align 8
  %17 = alloca %"class.absl::debian2::AlphaNum", align 8
  store ptr %0, ptr %3, align 8
  store ptr %1, ptr %4, align 8
  %18 = load ptr, ptr %4, align 8
  store i1 false, ptr %5, align 1
  call void @_ZNSt7__cxx1112basic_stringIcSt11char_traitsIcESaIcEEC1Ev(ptr noundef nonnull align 8 dereferenceable(32) %0) #3
  store i32 0, ptr %6, align 4
  store i32 0, ptr %7, align 4
  store i32 0, ptr %8, align 4
  br label %19

19:                                               ; preds = %59, %2
  %20 = load i32, ptr %8, align 4
  %21 = getelementptr inbounds nuw %"class.open_spiel::dots_and_boxes::DotsAndBoxesState", ptr %18, i32 0, i32 8
  %22 = load i32, ptr %21, align 4
  %23 = add nsw i32 %22, 1
  %24 = icmp slt i32 %20, %23
  br i1 %24, label %25, label %62

25:                                               ; preds = %19
  store i32 0, ptr %9, align 4
  br label %26

26:                                               ; preds = %53, %25
  %27 = load i32, ptr %9, align 4
  %28 = getelementptr inbounds nuw %"class.open_spiel::dots_and_boxes::DotsAndBoxesState", ptr %18, i32 0, i32 9
  %29 = load i32, ptr %28, align 8
  %30 = icmp slt i32 %27, %29
  br i1 %30, label %31, label %56

31:                                               ; preds = %26
  %32 = getelementptr inbounds nuw %"class.open_spiel::dots_and_boxes::DotsAndBoxesState", ptr %18, i32 0, i32 3
  %33 = load i32, ptr %6, align 4
  %34 = sext i32 %33 to i64
  %35 = call noundef nonnull align 4 dereferenceable(4) ptr @_ZNKSt6vectorIN10open_spiel14dots_and_boxes9CellStateESaIS2_EEixEm(ptr noundef nonnull align 8 dereferenceable(24) %32, i64 noundef %34) #3
  %36 = load i32, ptr %35, align 4
  %37 = icmp ne i32 %36, 0
  br i1 %37, label %38, label %45

38:                                               ; preds = %31
  invoke void @_ZN4absl7debian28AlphaNumC2EPKc(ptr noundef nonnull align 8 dereferenceable(48) %10, ptr noundef @.str.9)
          to label %39 unwind label %41

39:                                               ; preds = %38
  invoke void @_ZN4absl7debian29StrAppendEPNSt7__cxx1112basic_stringIcSt11char_traitsIcESaIcEEERKNS0_8AlphaNumE(ptr noundef %0, ptr noundef nonnull align 8 dereferenceable(48) %10)
          to label %40 unwind label %41

40:                                               ; preds = %39
  br label %48

41:                                               ; preds = %86, %85, %83, %82, %46, %45, %39, %38
  %42 = landingpad { ptr, i32 }
          cleanup
  %43 = extractvalue { ptr, i32 } %42, 0
  store ptr %43, ptr %11, align 8
  %44 = extractvalue { ptr, i32 } %42, 1
  store i32 %44, ptr %12, align 4
  call void @_ZNSt7__cxx1112basic_stringIcSt11char_traitsIcESaIcEED1Ev(ptr noundef nonnull align 8 dereferenceable(32) %0) #3
  br label %104

45:                                               ; preds = %31
  invoke void @_ZN4absl7debian28AlphaNumC2EPKc(ptr noundef nonnull align 8 dereferenceable(48) %13, ptr noundef @.str.35)
          to label %46 unwind label %41

46:                                               ; preds = %45
  invoke void @_ZN4absl7debian29StrAppendEPNSt7__cxx1112basic_stringIcSt11char_traitsIcESaIcEEERKNS0_8AlphaNumE(ptr noundef %0, ptr noundef nonnull align 8 dereferenceable(48) %13)
          to label %47 unwind label %41

47:                                               ; preds = %46
  br label %48

48:                                               ; preds = %47, %40
  %49 = load i32, ptr %7, align 4
  %50 = add nsw i32 %49, 1
  store i32 %50, ptr %7, align 4
  %51 = load i32, ptr %6, align 4
  %52 = add nsw i32 %51, 1
  store i32 %52, ptr %6, align 4
  br label %53

53:                                               ; preds = %48
  %54 = load i32, ptr %9, align 4
  %55 = add nsw i32 %54, 1
  store i32 %55, ptr %9, align 4
  br label %26, !llvm.loop !9

56:                                               ; preds = %26
  %57 = load i32, ptr %6, align 4
  %58 = add nsw i32 %57, 1
  store i32 %58, ptr %6, align 4
  br label %59

59:                                               ; preds = %56
  %60 = load i32, ptr %8, align 4
  %61 = add nsw i32 %60, 1
  store i32 %61, ptr %8, align 4
  br label %19, !llvm.loop !10

62:                                               ; preds = %19
  store i32 0, ptr %6, align 4
  store i32 0, ptr %14, align 4
  br label %63

63:                                               ; preds = %97, %62
  %64 = load i32, ptr %14, align 4
  %65 = getelementptr inbounds nuw %"class.open_spiel::dots_and_boxes::DotsAndBoxesState", ptr %18, i32 0, i32 8
  %66 = load i32, ptr %65, align 4
  %67 = icmp slt i32 %64, %66
  br i1 %67, label %68, label %100

68:                                               ; preds = %63
  store i32 0, ptr %15, align 4
  br label %69

69:                                               ; preds = %93, %68
  %70 = load i32, ptr %15, align 4
  %71 = getelementptr inbounds nuw %"class.open_spiel::dots_and_boxes::DotsAndBoxesState", ptr %18, i32 0, i32 9
  %72 = load i32, ptr %71, align 8
  %73 = add nsw i32 %72, 1
  %74 = icmp slt i32 %70, %73
  br i1 %74, label %75, label %96

75:                                               ; preds = %69
  %76 = getelementptr inbounds nuw %"class.open_spiel::dots_and_boxes::DotsAndBoxesState", ptr %18, i32 0, i32 2
  %77 = load i32, ptr %6, align 4
  %78 = sext i32 %77 to i64
  %79 = call noundef nonnull align 4 dereferenceable(4) ptr @_ZNKSt6vectorIN10open_spiel14dots_and_boxes9CellStateESaIS2_EEixEm(ptr noundef nonnull align 8 dereferenceable(24) %76, i64 noundef %78) #3
  %80 = load i32, ptr %79, align 4
  %81 = icmp ne i32 %80, 0
  br i1 %81, label %82, label %85

82:                                               ; preds = %75
  invoke void @_ZN4absl7debian28AlphaNumC2EPKc(ptr noundef nonnull align 8 dereferenceable(48) %16, ptr noundef @.str.9)
          to label %83 unwind label %41

83:                                               ; preds = %82
  invoke void @_ZN4absl7debian29StrAppendEPNSt7__cxx1112basic_stringIcSt11char_traitsIcESaIcEEERKNS0_8AlphaNumE(ptr noundef %0, ptr noundef nonnull align 8 dereferenceable(48) %16)
          to label %84 unwind label %41

84:                                               ; preds = %83
  br label %88

85:                                               ; preds = %75
  invoke void @_ZN4absl7debian28AlphaNumC2EPKc(ptr noundef nonnull align 8 dereferenceable(48) %17, ptr noundef @.str.35)
          to label %86 unwind label %41

86:                                               ; preds = %85
  invoke void @_ZN4absl7debian29StrAppendEPNSt7__cxx1112basic_stringIcSt11char_traitsIcESaIcEEERKNS0_8AlphaNumE(ptr noundef %0, ptr noundef nonnull align 8 dereferenceable(48) %17)
          to label %87 unwind label %41

87:                                               ; preds = %86
  br label %88

88:                                               ; preds = %87, %84
  %89 = load i32, ptr %7, align 4
  %90 = add nsw i32 %89, 1
  store i32 %90, ptr %7, align 4
  %91 = load i32, ptr %6, align 4
  %92 = add nsw i32 %91, 1
  store i32 %92, ptr %6, align 4
  br label %93

93:                                               ; preds = %88
  %94 = load i32, ptr %15, align 4
  %95 = add nsw i32 %94, 1
  store i32 %95, ptr %15, align 4
  br label %69, !llvm.loop !11

96:                                               ; preds = %69
  br label %97

97:                                               ; preds = %96
  %98 = load i32, ptr %14, align 4
  %99 = add nsw i32 %98, 1
  store i32 %99, ptr %14, align 4
  br label %63, !llvm.loop !12

100:                                              ; preds = %63
  store i1 true, ptr %5, align 1
  %101 = load i1, ptr %5, align 1
  br i1 %101, label %103, label %102

102:                                              ; preds = %100
  call void @_ZNSt7__cxx1112basic_stringIcSt11char_traitsIcESaIcEED1Ev(ptr noundef nonnull align 8 dereferenceable(32) %0) #3
  br label %103

103:                                              ; preds = %102, %100
  ret void

104:                                              ; preds = %41
  %105 = load ptr, ptr %11, align 8
  %106 = load i32, ptr %12, align 4
  %107 = insertvalue { ptr, i32 } poison, ptr %105, 0
  %108 = insertvalue { ptr, i32 } %107, i32 %106, 1
  resume { ptr, i32 } %108
}