; Function Attrs: mustprogress uwtable
define void @_ZNK10open_spiel14dots_and_boxes17DotsAndBoxesState9DbnStringB5cxx11Ev(ptr dead_on_unwind noalias nonnull writable sret(%"class.std::__cxx11::basic_string") align 8 %0, ptr nocapture noundef nonnull readonly align 8 dereferenceable(169) %1) local_unnamed_addr #3 align 2 personality ptr @__gxx_personality_v0 {
  %3 = alloca %"class.absl::debian2::AlphaNum", align 8
  %4 = alloca %"class.absl::debian2::AlphaNum", align 8
  %5 = alloca %"class.absl::debian2::AlphaNum", align 8
  %6 = alloca %"class.absl::debian2::AlphaNum", align 8
  tail call void @_ZNSt7__cxx1112basic_stringIcSt11char_traitsIcESaIcEEC1Ev(ptr noundef nonnull align 8 dereferenceable(32) %0) #26
  %7 = getelementptr inbounds nuw i8, ptr %1, i64 148
  %8 = load i32, ptr %7, align 4
  %.not44 = icmp slt i32 %8, 0
  br i1 %.not44, label %._crit_edge60, label %.preheader33.lr.ph

.preheader33.lr.ph:                               ; preds = %2
  %9 = getelementptr inbounds nuw i8, ptr %1, i64 152
  %10 = getelementptr inbounds nuw i8, ptr %1, i64 88
  %11 = getelementptr inbounds nuw i8, ptr %3, i64 8
  %12 = getelementptr inbounds nuw i8, ptr %4, i64 8
  %13 = load i32, ptr %9, align 8
  %14 = icmp sgt i32 %13, 0
  br i1 %14, label %.preheader33, label %.preheader32

.preheader33:                                     ; preds = %.preheader33.lr.ph, %._crit_edge
  %15 = phi i32 [ %39, %._crit_edge ], [ %8, %.preheader33.lr.ph ]
  %16 = phi i32 [ %40, %._crit_edge ], [ %13, %.preheader33.lr.ph ]
  %.01947 = phi i32 [ %41, %._crit_edge ], [ 0, %.preheader33.lr.ph ]
  %.02146 = phi i32 [ %42, %._crit_edge ], [ 0, %.preheader33.lr.ph ]
  %17 = icmp sgt i32 %16, 0
  br i1 %17, label %.lr.ph.preheader, label %._crit_edge

.lr.ph.preheader:                                 ; preds = %.preheader33
  %18 = sext i32 %.01947 to i64
  br label %.lr.ph

.preheader32:                                     ; preds = %._crit_edge, %.preheader33.lr.ph
  %19 = phi i32 [ %8, %.preheader33.lr.ph ], [ %39, %._crit_edge ]
  %20 = icmp sgt i32 %19, 0
  br i1 %20, label %.preheader.lr.ph, label %._crit_edge60

.preheader.lr.ph:                                 ; preds = %.preheader32
  %21 = getelementptr inbounds nuw i8, ptr %1, i64 152
  %22 = getelementptr inbounds nuw i8, ptr %1, i64 64
  %23 = getelementptr inbounds nuw i8, ptr %5, i64 8
  %24 = getelementptr inbounds nuw i8, ptr %6, i64 8
  %25 = load i32, ptr %21, align 8
  %26 = icmp slt i32 %25, 0
  br i1 %26, label %._crit_edge60, label %.preheader

.lr.ph:                                           ; preds = %.lr.ph.preheader, %34
  %indvars.iv = phi i64 [ %18, %.lr.ph.preheader ], [ %indvars.iv.next, %34 ]
  %.02041 = phi i32 [ 0, %.lr.ph.preheader ], [ %35, %34 ]
  %27 = load ptr, ptr %10, align 8
  %28 = getelementptr inbounds i32, ptr %27, i64 %indvars.iv
  %29 = load i32, ptr %28, align 4
  %.not28 = icmp eq i32 %29, 0
  br i1 %.not28, label %33, label %30

30:                                               ; preds = %.lr.ph
  store ptr @.str.9, ptr %3, align 8
  br label %.invoke73

.invoke73:                                        ; preds = %33, %30
  %.sink74 = phi ptr [ %12, %33 ], [ %11, %30 ]
  %31 = phi ptr [ %4, %33 ], [ %3, %30 ]
  store i64 1, ptr %.sink74, align 8
  invoke void @_ZN4absl7debian29StrAppendEPNSt7__cxx1112basic_stringIcSt11char_traitsIcESaIcEEERKNS0_8AlphaNumE(ptr noundef nonnull %0, ptr noundef nonnull align 8 dereferenceable(48) %31)
          to label %34 unwind label %.loopexit.split-lp

.loopexit:                                        ; preds = %.invoke
  %lpad.loopexit = landingpad { ptr, i32 }
          cleanup
  br label %32

.loopexit.split-lp:                               ; preds = %.invoke73
  %lpad.loopexit.split-lp = landingpad { ptr, i32 }
          cleanup
  br label %32

32:                                               ; preds = %.loopexit.split-lp, %.loopexit
  %lpad.phi = phi { ptr, i32 } [ %lpad.loopexit, %.loopexit ], [ %lpad.loopexit.split-lp, %.loopexit.split-lp ]
  call void @_ZNSt7__cxx1112basic_stringIcSt11char_traitsIcESaIcEED1Ev(ptr noundef nonnull align 8 dereferenceable(32) %0) #26
  resume { ptr, i32 } %lpad.phi

33:                                               ; preds = %.lr.ph
  store ptr @.str.35, ptr %4, align 8
  br label %.invoke73

34:                                               ; preds = %.invoke73
  %indvars.iv.next = add nsw i64 %indvars.iv, 1
  %35 = add nuw nsw i32 %.02041, 1
  %36 = load i32, ptr %9, align 8
  %37 = icmp slt i32 %35, %36
  br i1 %37, label %.lr.ph, label %._crit_edge.loopexit, !llvm.loop !10

._crit_edge.loopexit:                             ; preds = %34
  %38 = trunc nsw i64 %indvars.iv.next to i32
  %.pre = load i32, ptr %7, align 4
  br label %._crit_edge

._crit_edge:                                      ; preds = %._crit_edge.loopexit, %.preheader33
  %39 = phi i32 [ %15, %.preheader33 ], [ %.pre, %._crit_edge.loopexit ]
  %40 = phi i32 [ %16, %.preheader33 ], [ %36, %._crit_edge.loopexit ]
  %.1.lcssa = phi i32 [ %.01947, %.preheader33 ], [ %38, %._crit_edge.loopexit ]
  %41 = add nsw i32 %.1.lcssa, 1
  %42 = add nuw nsw i32 %.02146, 1
  %.not.not = icmp slt i32 %.02146, %39
  br i1 %.not.not, label %.preheader33, label %.preheader32, !llvm.loop !11

.preheader:                                       ; preds = %.preheader.lr.ph, %._crit_edge54
  %43 = phi i32 [ %56, %._crit_edge54 ], [ %19, %.preheader.lr.ph ]
  %44 = phi i32 [ %57, %._crit_edge54 ], [ %25, %.preheader.lr.ph ]
  %.01859 = phi i32 [ %58, %._crit_edge54 ], [ 0, %.preheader.lr.ph ]
  %.258 = phi i32 [ %.3.lcssa, %._crit_edge54 ], [ 0, %.preheader.lr.ph ]
  %.not2649 = icmp slt i32 %44, 0
  br i1 %.not2649, label %._crit_edge54, label %.lr.ph53.preheader

.lr.ph53.preheader:                               ; preds = %.preheader
  %45 = sext i32 %.258 to i64
  br label %.lr.ph53

.lr.ph53:                                         ; preds = %.lr.ph53.preheader, %52
  %indvars.iv67 = phi i64 [ %45, %.lr.ph53.preheader ], [ %indvars.iv.next68, %52 ]
  %.052 = phi i32 [ 0, %.lr.ph53.preheader ], [ %53, %52 ]
  %46 = load ptr, ptr %22, align 8
  %47 = getelementptr inbounds i32, ptr %46, i64 %indvars.iv67
  %48 = load i32, ptr %47, align 4
  %.not27 = icmp eq i32 %48, 0
  br i1 %.not27, label %51, label %49

49:                                               ; preds = %.lr.ph53
  store ptr @.str.9, ptr %5, align 8
  br label %.invoke

.invoke:                                          ; preds = %51, %49
  %.sink = phi ptr [ %24, %51 ], [ %23, %49 ]
  %50 = phi ptr [ %6, %51 ], [ %5, %49 ]
  store i64 1, ptr %.sink, align 8
  invoke void @_ZN4absl7debian29StrAppendEPNSt7__cxx1112basic_stringIcSt11char_traitsIcESaIcEEERKNS0_8AlphaNumE(ptr noundef nonnull %0, ptr noundef nonnull align 8 dereferenceable(48) %50)
          to label %52 unwind label %.loopexit

51:                                               ; preds = %.lr.ph53
  store ptr @.str.35, ptr %6, align 8
  br label %.invoke

52:                                               ; preds = %.invoke
  %indvars.iv.next68 = add nsw i64 %indvars.iv67, 1
  %53 = add nuw nsw i32 %.052, 1
  %54 = load i32, ptr %21, align 8
  %.not26.not = icmp slt i32 %.052, %54
  br i1 %.not26.not, label %.lr.ph53, label %._crit_edge54.loopexit, !llvm.loop !12

._crit_edge54.loopexit:                           ; preds = %52
  %55 = trunc nsw i64 %indvars.iv.next68 to i32
  %.pre70 = load i32, ptr %7, align 4
  br label %._crit_edge54

._crit_edge54:                                    ; preds = %._crit_edge54.loopexit, %.preheader
  %56 = phi i32 [ %43, %.preheader ], [ %.pre70, %._crit_edge54.loopexit ]
  %57 = phi i32 [ %44, %.preheader ], [ %54, %._crit_edge54.loopexit ]
  %.3.lcssa = phi i32 [ %.258, %.preheader ], [ %55, %._crit_edge54.loopexit ]
  %58 = add nuw nsw i32 %.01859, 1
  %59 = icmp slt i32 %58, %56
  br i1 %59, label %.preheader, label %._crit_edge60, !llvm.loop !13

._crit_edge60:                                    ; preds = %._crit_edge54, %2, %.preheader.lr.ph, %.preheader32
  ret void
}